; Function Attrs: nounwind uwtable
define dso_local i32 @ss_get_location(ptr noundef readonly captures(none) %0, i32 noundef %1) local_unnamed_addr #1 {
  %3 = load ptr, ptr @MainLWLockArray, align 8
  %4 = getelementptr inbounds nuw i8, ptr %3, i64 3072
  %5 = tail call zeroext i1 @LWLockAcquire(ptr noundef nonnull %4, i32 noundef 0) #4
  %.sroa.0.0.copyload = load i64, ptr %0, align 8
  %.sroa.2.0..sroa_idx = getelementptr inbounds nuw i8, ptr %0, i64 8
  %.sroa.2.0.copyload = load i32, ptr %.sroa.2.0..sroa_idx, align 8
  %.sroa.026.sroa.0.0.extract.trunc.i = trunc i64 %.sroa.0.0.copyload to i32
  %.sroa.026.sroa.3.0.extract.shift.i = lshr i64 %.sroa.0.0.copyload, 32
  %.sroa.026.sroa.3.0.extract.trunc.i = trunc nuw i64 %.sroa.026.sroa.3.0.extract.shift.i to i32
  %6 = load ptr, ptr @scan_locations, align 8
  %7 = load ptr, ptr %6, align 8
  br label %8

8:                                                ; preds = %.thread.i, %2
  %.029.i = phi ptr [ %7, %2 ], [ %21, %.thread.i ]
  %9 = getelementptr inbounds nuw i8, ptr %.029.i, i64 16
  %10 = getelementptr inbounds nuw i8, ptr %.029.i, i64 24
  %11 = load i32, ptr %10, align 8
  %12 = icmp eq i32 %11, %.sroa.2.0.copyload
  br i1 %12, label %13, label %.thread.i

13:                                               ; preds = %8
  %14 = getelementptr inbounds nuw i8, ptr %.029.i, i64 20
  %15 = load i32, ptr %14, align 4
  %16 = icmp eq i32 %15, %.sroa.026.sroa.3.0.extract.trunc.i
  br i1 %16, label %17, label %.thread.i

17:                                               ; preds = %13
  %18 = load i32, ptr %9, align 8
  %19 = icmp eq i32 %18, %.sroa.026.sroa.0.0.extract.trunc.i
  br i1 %19, label %.critedge.i, label %.thread.i

.thread.i:                                        ; preds = %17, %13, %8
  %20 = getelementptr inbounds nuw i8, ptr %.029.i, i64 8
  %21 = load ptr, ptr %20, align 8
  %22 = icmp eq ptr %21, null
  br i1 %22, label %23, label %8

23:                                               ; preds = %.thread.i
  %24 = getelementptr inbounds nuw i8, ptr %.029.i, i64 24
  store i64 %.sroa.0.0.copyload, ptr %9, align 8
  store i32 %.sroa.2.0.copyload, ptr %24, align 8
  %25 = getelementptr inbounds nuw i8, ptr %.029.i, i64 28
  store i32 0, ptr %25, align 4
  %.pre = load ptr, ptr %6, align 8
  br label %.critedge.i

.critedge.i:                                      ; preds = %17, %23
  %26 = phi ptr [ %.pre, %23 ], [ %7, %17 ]
  %.not.i = icmp eq ptr %.029.i, %26
  br i1 %.not.i, label %ss_search.exit, label %27

27:                                               ; preds = %.critedge.i
  %28 = getelementptr inbounds nuw i8, ptr %6, i64 8
  %29 = load ptr, ptr %28, align 8
  %30 = icmp eq ptr %.029.i, %29
  %.pre.i = load ptr, ptr %.029.i, align 8
  br i1 %30, label %31, label %32

31:                                               ; preds = %27
  store ptr %.pre.i, ptr %28, align 8
  br label %32

32:                                               ; preds = %31, %27
  %33 = getelementptr inbounds nuw i8, ptr %.029.i, i64 8
  %34 = load ptr, ptr %33, align 8
  %35 = getelementptr inbounds nuw i8, ptr %.pre.i, i64 8
  store ptr %34, ptr %35, align 8
  %.not33.i = icmp eq ptr %34, null
  br i1 %.not33.i, label %38, label %36

36:                                               ; preds = %32
  %37 = load ptr, ptr %.029.i, align 8
  store ptr %37, ptr %34, align 8
  br label %38

38:                                               ; preds = %36, %32
  store ptr null, ptr %.029.i, align 8
  %39 = load ptr, ptr @scan_locations, align 8
  %40 = load ptr, ptr %39, align 8
  store ptr %40, ptr %33, align 8
  store ptr %.029.i, ptr %40, align 8
  store ptr %.029.i, ptr %39, align 8
  br label %ss_search.exit

ss_search.exit:                                   ; preds = %.critedge.i, %38
  %41 = getelementptr inbounds nuw i8, ptr %.029.i, i64 28
  %42 = load i32, ptr %41, align 4
  %43 = load ptr, ptr @MainLWLockArray, align 8
  %44 = getelementptr inbounds nuw i8, ptr %43, i64 3072
  tail call void @LWLockRelease(ptr noundef nonnull %44) #4
  %.not = icmp ult i32 %42, %1
  %spec.store.select = select i1 %.not, i32 %42, i32 0
  ret i32 %spec.store.select
}